target datalayout = "e-m:e-p270:32:32-p271:32:32-p272:64:64-i64:64-i128:128-f80:128-n8:16:32:64-S128"
target triple = "x86_64-pc-linux-gnu"

; Function Attrs: mustprogress nounwind uwtable
define internal noundef i32 @_ZL19find_previous_indexiPKdi(i32 noundef %0, ptr noundef %1, i32 noundef %2) #0 {
  %4 = alloca i32, align 4
  %5 = alloca ptr, align 8
  %6 = alloca i32, align 4
  %7 = alloca i32, align 4
  store i32 %0, ptr %4, align 4
  store ptr %1, ptr %5, align 8
  store i32 %2, ptr %6, align 4
  %8 = load i32, ptr %4, align 4
  %9 = sub nsw i32 %8, 1
  store i32 %9, ptr %7, align 4
  %10 = load i32, ptr %7, align 4
  %11 = icmp eq i32 %10, -1
  br i1 %11, label %12, label %15

12:                                               ; preds = %3
  %13 = load i32, ptr %6, align 4
  %14 = sub nsw i32 %13, 1
  store i32 %14, ptr %7, align 4
  br label %15

15:                                               ; preds = %12, %3
  br label %16

16:                                               ; preds = %37, %15
  %17 = load ptr, ptr %5, align 8
  %18 = load i32, ptr %7, align 4
  %19 = sext i32 %18 to i64
  %20 = getelementptr inbounds double, ptr %17, i64 %19
  %21 = load double, ptr %20, align 8
  %22 = fcmp oeq double %21, 0x7FF0000000000000
  br i1 %22, label %23, label %27

23:                                               ; preds = %16
  %24 = load i32, ptr %7, align 4
  %25 = load i32, ptr %4, align 4
  %26 = icmp ne i32 %24, %25
  br label %27

27:                                               ; preds = %23, %16
  %28 = phi i1 [ false, %16 ], [ %26, %23 ]
  br i1 %28, label %29, label %38

29:                                               ; preds = %27
  %30 = load i32, ptr %7, align 4
  %31 = add nsw i32 %30, -1
  store i32 %31, ptr %7, align 4
  %32 = load i32, ptr %7, align 4
  %33 = icmp eq i32 %32, -1
  br i1 %33, label %34, label %37

34:                                               ; preds = %29
  %35 = load i32, ptr %6, align 4
  %36 = sub nsw i32 %35, 1
  store i32 %36, ptr %7, align 4
  br label %37

37:                                               ; preds = %34, %29
  br label %16, !llvm.loop !23

38:                                               ; preds = %27
  %39 = load i32, ptr %7, align 4
  ret i32 %39
}

; Function Attrs: mustprogress nounwind uwtable
define internal noundef double @_ZL16antimeridian_maxPKdi(ptr noundef %0, i32 noundef %1) #0 {
  %3 = alloca double, align 8
  %4 = alloca ptr, align 8
  %5 = alloca i32, align 4
  %6 = alloca double, align 8
  %7 = alloca double, align 8
  %8 = alloca i8, align 1
  %9 = alloca i32, align 4
  %10 = alloca i32, align 4
  %11 = alloca i32, align 4
  %12 = alloca double, align 8
  store ptr %0, ptr %4, align 8
  store i32 %1, ptr %5, align 4
  store double 0xFFF0000000000000, ptr %6, align 8
  store double 0xFFF0000000000000, ptr %7, align 8
  store i8 0, ptr %8, align 1
  store i32 0, ptr %9, align 4
  store i32 0, ptr %10, align 4
  br label %13

13:                                               ; preds = %125, %2
  %14 = load i32, ptr %10, align 4
  %15 = load i32, ptr %5, align 4
  %16 = icmp slt i32 %14, %15
  br i1 %16, label %17, label %128

17:                                               ; preds = %13
  %18 = load ptr, ptr %4, align 8
  %19 = load i32, ptr %10, align 4
  %20 = sext i32 %19 to i64
  %21 = getelementptr inbounds double, ptr %18, i64 %20
  %22 = load double, ptr %21, align 8
  %23 = fcmp oeq double %22, 0x7FF0000000000000
  br i1 %23, label %24, label %25

24:                                               ; preds = %17
  br label %125

25:                                               ; preds = %17
  %26 = load i32, ptr %10, align 4
  %27 = load ptr, ptr %4, align 8
  %28 = load i32, ptr %5, align 4
  %29 = call noundef i32 @_ZL19find_previous_indexiPKdi(i32 noundef %26, ptr noundef %27, i32 noundef %28)
  store i32 %29, ptr %11, align 4
  %30 = load ptr, ptr %4, align 8
  %31 = load i32, ptr %11, align 4
  %32 = sext i32 %31 to i64
  %33 = getelementptr inbounds double, ptr %30, i64 %32
  %34 = load double, ptr %33, align 8
  %35 = load ptr, ptr %4, align 8
  %36 = load i32, ptr %10, align 4
  %37 = sext i32 %36 to i64
  %38 = getelementptr inbounds double, ptr %35, i64 %37
  %39 = load double, ptr %38, align 8
  %40 = fsub double %34, %39
  store double %40, ptr %12, align 8
  %41 = load double, ptr %12, align 8
  %42 = fcmp oge double %41, 2.000000e+02
  br i1 %42, label %43, label %58

43:                                               ; preds = %25
  %44 = load double, ptr %12, align 8
  %45 = fcmp une double %44, 0x7FF0000000000000
  br i1 %45, label %46, label %58

46:                                               ; preds = %43
  %47 = load i32, ptr %9, align 4
  %48 = icmp eq i32 %47, 0
  br i1 %48, label %49, label %55

49:                                               ; preds = %46
  %50 = load ptr, ptr %4, align 8
  %51 = load i32, ptr %10, align 4
  %52 = sext i32 %51 to i64
  %53 = getelementptr inbounds double, ptr %50, i64 %52
  %54 = load double, ptr %53, align 8
  store double %54, ptr %6, align 8
  br label %55

55:                                               ; preds = %49, %46
  %56 = load i32, ptr %9, align 4
  %57 = add nsw i32 %56, 1
  store i32 %57, ptr %9, align 4
  store i8 1, ptr %8, align 1
  br label %73

58:                                               ; preds = %43, %25
  %59 = load double, ptr %12, align 8
  %60 = fcmp ole double %59, -2.000000e+02
  br i1 %60, label %61, label %72

61:                                               ; preds = %58
  %62 = load double, ptr %12, align 8
  %63 = fcmp une double %62, 0x7FF0000000000000
  br i1 %63, label %64, label %72

64:                                               ; preds = %61
  %65 = load i32, ptr %9, align 4
  %66 = icmp eq i32 %65, 0
  br i1 %66, label %67, label %69

67:                                               ; preds = %64
  %68 = load double, ptr %7, align 8
  store double %68, ptr %6, align 8
  br label %69

69:                                               ; preds = %67, %64
  store i8 0, ptr %8, align 1
  %70 = load i32, ptr %9, align 4
  %71 = add nsw i32 %70, 1
  store i32 %71, ptr %9, align 4
  br label %72

72:                                               ; preds = %69, %61, %58
  br label %73

73:                                               ; preds = %72, %55
  %74 = load i8, ptr %8, align 1
  %75 = trunc i8 %74 to i1
  br i1 %75, label %76, label %100

76:                                               ; preds = %73
  %77 = load ptr, ptr %4, align 8
  %78 = load i32, ptr %10, align 4
  %79 = sext i32 %78 to i64
  %80 = getelementptr inbounds double, ptr %77, i64 %79
  %81 = load double, ptr %80, align 8
  %82 = load double, ptr %6, align 8
  %83 = fcmp ogt double %81, %82
  br i1 %83, label %87, label %84

84:                                               ; preds = %76
  %85 = load double, ptr %6, align 8
  %86 = fcmp oeq double %85, 0x7FF0000000000000
  br i1 %86, label %87, label %100

87:                                               ; preds = %84, %76
  %88 = load ptr, ptr %4, align 8
  %89 = load i32, ptr %10, align 4
  %90 = sext i32 %89 to i64
  %91 = getelementptr inbounds double, ptr %88, i64 %90
  %92 = load double, ptr %91, align 8
  %93 = fcmp une double %92, 0x7FF0000000000000
  br i1 %93, label %94, label %100

94:                                               ; preds = %87
  %95 = load ptr, ptr %4, align 8
  %96 = load i32, ptr %10, align 4
  %97 = sext i32 %96 to i64
  %98 = getelementptr inbounds double, ptr %95, i64 %97
  %99 = load double, ptr %98, align 8
  store double %99, ptr %6, align 8
  br label %100

100:                                              ; preds = %94, %87, %84, %73
  %101 = load ptr, ptr %4, align 8
  %102 = load i32, ptr %10, align 4
  %103 = sext i32 %102 to i64
  %104 = getelementptr inbounds double, ptr %101, i64 %103
  %105 = load double, ptr %104, align 8
  %106 = load double, ptr %7, align 8
  %107 = fcmp ogt double %105, %106
  br i1 %107, label %111, label %108

108:                                              ; preds = %100
  %109 = load double, ptr %7, align 8
  %110 = fcmp oeq double %109, 0x7FF0000000000000
  br i1 %110, label %111, label %124

111:                                              ; preds = %108, %100
  %112 = load ptr, ptr %4, align 8
  %113 = load i32, ptr %10, align 4
  %114 = sext i32 %113 to i64
  %115 = getelementptr inbounds double, ptr %112, i64 %114
  %116 = load double, ptr %115, align 8
  %117 = fcmp une double %116, 0x7FF0000000000000
  br i1 %117, label %118, label %124

118:                                              ; preds = %111
  %119 = load ptr, ptr %4, align 8
  %120 = load i32, ptr %10, align 4
  %121 = sext i32 %120 to i64
  %122 = getelementptr inbounds double, ptr %119, i64 %121
  %123 = load double, ptr %122, align 8
  store double %123, ptr %7, align 8
  br label %124

124:                                              ; preds = %118, %111, %108
  br label %125

125:                                              ; preds = %124, %24
  %126 = load i32, ptr %10, align 4
  %127 = add nsw i32 %126, 1
  store i32 %127, ptr %10, align 4
  br label %13, !llvm.loop !17

128:                                              ; preds = %13
  %129 = load i32, ptr %9, align 4
  %130 = icmp eq i32 %129, 2
  br i1 %130, label %131, label %133

131:                                              ; preds = %128
  %132 = load double, ptr %6, align 8
  store double %132, ptr %3, align 8
  br label %140

133:                                              ; preds = %128
  %134 = load i32, ptr %9, align 4
  %135 = icmp eq i32 %134, 4
  br i1 %135, label %136, label %137

136:                                              ; preds = %133
  store double 1.800000e+02, ptr %3, align 8
  br label %140

137:                                              ; preds = %133
  br label %138

138:                                              ; preds = %137
  %139 = load double, ptr %7, align 8
  store double %139, ptr %3, align 8
  br label %140

140:                                              ; preds = %138, %136, %131
  %141 = load double, ptr %3, align 8
  ret double %141
}