; Function Attrs: mustprogress nofree norecurse nosync nounwind willreturn memory(argmem: read) uwtable
define internal fastcc noundef double @_ZL16antimeridian_maxPKdi(ptr nocapture noundef readonly %0, i32 noundef %1) unnamed_addr #21 {
  %3 = icmp sgt i32 %1, 0
  br i1 %3, label %.lr.ph.preheader, label %._crit_edge.thread

.lr.ph.preheader:                                 ; preds = %2
  %wide.trip.count = zext nneg i32 %1 to i64
  br label %.lr.ph

.lr.ph:                                           ; preds = %.lr.ph.preheader, %44
  %indvars.iv = phi i64 [ 0, %.lr.ph.preheader ], [ %indvars.iv.next, %44 ]
  %.05183 = phi double [ 0xFFF0000000000000, %.lr.ph.preheader ], [ %.5, %44 ]
  %.05380 = phi i32 [ 0, %.lr.ph.preheader ], [ %.255, %44 ]
  %.05679 = phi i1 [ false, %.lr.ph.preheader ], [ %.258, %44 ]
  %.05978 = phi double [ 0xFFF0000000000000, %.lr.ph.preheader ], [ %.160, %44 ]
  %4 = getelementptr inbounds double, ptr %0, i64 %indvars.iv
  %5 = load double, ptr %4, align 8
  %6 = fcmp oeq double %5, 0x7FF0000000000000
  br i1 %6, label %44, label %7

7:                                                ; preds = %.lr.ph
  %8 = icmp eq i64 %indvars.iv, 0
  %9 = trunc nuw nsw i64 %indvars.iv to i32
  %spec.select.i = select i1 %8, i32 %1, i32 %9
  %.113.i = add nsw i32 %spec.select.i, -1
  %10 = sext i32 %.113.i to i64
  %11 = getelementptr inbounds double, ptr %0, i64 %10
  %12 = load double, ptr %11, align 8
  %13 = fcmp oeq double %12, 0x7FF0000000000000
  %14 = zext i32 %.113.i to i64
  %15 = icmp ne i64 %indvars.iv, %14
  %16 = and i1 %15, %13
  br i1 %16, label %.lr.ph.i, label %_ZL19find_previous_indexiPKdi.exit

.lr.ph.i:                                         ; preds = %7, %.lr.ph.i
  %.114.i = phi i32 [ %.1.i, %.lr.ph.i ], [ %.113.i, %7 ]
  %17 = icmp eq i32 %.114.i, 0
  %spec.select12.i = select i1 %17, i32 %1, i32 %.114.i
  %.1.i = add nsw i32 %spec.select12.i, -1
  %18 = sext i32 %.1.i to i64
  %19 = getelementptr inbounds double, ptr %0, i64 %18
  %20 = load double, ptr %19, align 8
  %21 = fcmp oeq double %20, 0x7FF0000000000000
  %22 = zext i32 %.1.i to i64
  %23 = icmp ne i64 %indvars.iv, %22
  %24 = and i1 %21, %23
  br i1 %24, label %.lr.ph.i, label %_ZL19find_previous_indexiPKdi.exit, !llvm.loop !18

_ZL19find_previous_indexiPKdi.exit:               ; preds = %.lr.ph.i, %7
  %25 = phi double [ %12, %7 ], [ %20, %.lr.ph.i ]
  %26 = fsub double %25, %5
  %27 = fcmp oge double %26, 2.000000e+02
  %28 = fcmp une double %26, 0x7FF0000000000000
  %or.cond = and i1 %27, %28
  br i1 %or.cond, label %.thread, label %31

.thread:                                          ; preds = %_ZL19find_previous_indexiPKdi.exit
  %29 = icmp eq i32 %.05380, 0
  %.1 = select i1 %29, double %5, double %.05183
  %30 = add nsw i32 %.05380, 1
  br label %36

31:                                               ; preds = %_ZL19find_previous_indexiPKdi.exit
  %32 = fcmp ole double %26, -2.000000e+02
  %or.cond3 = and i1 %32, %28
  br i1 %or.cond3, label %.thread74, label %35

.thread74:                                        ; preds = %31
  %33 = icmp eq i32 %.05380, 0
  %.2 = select i1 %33, double %.05978, double %.05183
  %34 = add nsw i32 %.05380, 1
  br label %40

35:                                               ; preds = %31
  br i1 %.05679, label %36, label %40

36:                                               ; preds = %.thread, %35
  %.373 = phi double [ %.1, %.thread ], [ %.05183, %35 ]
  %.15472 = phi i32 [ %30, %.thread ], [ %.05380, %35 ]
  %37 = fcmp ogt double %5, %.373
  %38 = fcmp oeq double %.373, 0x7FF0000000000000
  %or.cond5 = or i1 %37, %38
  br i1 %or.cond5, label %39, label %40

39:                                               ; preds = %36
  br label %40

40:                                               ; preds = %.thread74, %36, %39, %35
  %.15471 = phi i32 [ %.15472, %39 ], [ %.15472, %36 ], [ %.05380, %35 ], [ %34, %.thread74 ]
  %.15769 = phi i1 [ true, %39 ], [ true, %36 ], [ false, %35 ], [ false, %.thread74 ]
  %.4 = phi double [ %5, %39 ], [ %.373, %36 ], [ %.05183, %35 ], [ %.2, %.thread74 ]
  %41 = fcmp ogt double %5, %.05978
  %42 = fcmp oeq double %.05978, 0x7FF0000000000000
  %or.cond7 = or i1 %42, %41
  br i1 %or.cond7, label %43, label %44

43:                                               ; preds = %40
  br label %44

44:                                               ; preds = %43, %40, %.lr.ph
  %.160 = phi double [ %.05978, %.lr.ph ], [ %5, %43 ], [ %.05978, %40 ]
  %.258 = phi i1 [ %.05679, %.lr.ph ], [ %.15769, %43 ], [ %.15769, %40 ]
  %.255 = phi i32 [ %.05380, %.lr.ph ], [ %.15471, %43 ], [ %.15471, %40 ]
  %.5 = phi double [ %.05183, %.lr.ph ], [ %.4, %43 ], [ %.4, %40 ]
  %indvars.iv.next = add nuw nsw i64 %indvars.iv, 1
  %exitcond.not = icmp eq i64 %indvars.iv.next, %wide.trip.count
  br i1 %exitcond.not, label %._crit_edge, label %.lr.ph, !llvm.loop !20

._crit_edge:                                      ; preds = %44
  switch i32 %.255, label %46 [
    i32 2, label %._crit_edge.thread
    i32 4, label %45
  ]

45:                                               ; preds = %._crit_edge
  br label %._crit_edge.thread

46:                                               ; preds = %._crit_edge
  br label %._crit_edge.thread

._crit_edge.thread:                               ; preds = %2, %._crit_edge, %46, %45
  %.0 = phi double [ 1.800000e+02, %45 ], [ %.5, %._crit_edge ], [ %.160, %46 ], [ 0xFFF0000000000000, %2 ]
  ret double %.0
}